(lp0
(lp1
(lp2
(lp3
S'1.7469e-05'
p4
aS'16'
p5
aa(lp6
S'1.7457e-05'
p7
aS'16'
p8
aa(lp9
S'1.7398e-05'
p10
aS'16'
p11
aa(lp12
S'2.5639e-05'
p13
aS'18'
p14
aa(lp15
S'2.5687e-05'
p16
aS'18'
p17
aa(lp18
S'2.4305e-05'
p19
aS'16'
p20
aa(lp21
S'2.4423e-05'
p22
aS'16'
p23
aa(lp24
S'2.4403e-05'
p25
aS'16'
p26
aa(lp27
NaNaa(lp28
NaNaa(lp29
NaNaaa(lp30
(lp31
S'2.0810e-05'
p32
aS'18'
p33
aa(lp34
S'2.1746e-05'
p35
aS'19'
p36
aa(lp37
S'2.0930e-05'
p38
aS'18'
p39
aa(lp40
S'1.5821e-04'
p41
aS'16'
p42
aa(lp43
S'1.5776e-04'
p44
aS'16'
p45
aa(lp46
S'2.3359e-05'
p47
aS'16'
p48
aa(lp49
S'2.3453e-05'
p50
aS'16'
p51
aa(lp52
NaNaa(lp53
NaNaa(lp54
S'4.1406e-05'
p55
aS'15'
p56
aa(lp57
NaNaaa(lp58
(lp59
S'2.1005e-05'
p60
aS'23'
p61
aa(lp62
S'2.4171e-05'
p63
aS'20'
p64
aa(lp65
S'1.6382e-05'
p66
aS'19'
p67
aa(lp68
S'2.1532e-05'
p69
aS'18'
p70
aa(lp71
S'2.1653e-05'
p72
aS'18'
p73
aa(lp74
S'2.7033e-05'
p75
aS'22'
p76
aa(lp77
S'2.3349e-05'
p78
aS'21'
p79
aa(lp80
S'1.8424e-05'
p81
aS'19'
p82
aa(lp83
NaNaa(lp84
S'1.6125e-02'
p85
aS'10'
p86
aa(lp87
S'2.8623e-02'
p88
aS'13'
p89
aaa(lp90
(lp91
S'2.1084e-05'
p92
aS'19'
p93
aa(lp94
S'2.1141e-05'
p95
aS'19'
p96
aa(lp97
S'2.1165e-05'
p98
aS'19'
p99
aa(lp100
S'2.1775e-05'
p101
aS'21'
p102
aa(lp103
S'2.1756e-05'
p104
aS'21'
p105
aa(lp106
S'2.1766e-05'
p107
aS'21'
p108
aa(lp109
S'2.1816e-05'
p110
aS'21'
p111
aa(lp112
S'2.1862e-05'
p113
aS'21'
p114
aa(lp115
NaNaa(lp116
NaNaa(lp117
S'2.1718e-05'
p118
aS'22'
p119
aaa(lp120
(lp121
S'3.5623e-05'
p122
aS'22'
p123
aa(lp124
S'3.1885e-05'
p125
aS'24'
p126
aa(lp127
S'3.1914e-05'
p128
aS'24'
p129
aa(lp130
S'3.6447e-05'
p131
aS'26'
p132
aa(lp133
S'3.6497e-05'
p134
aS'26'
p135
aa(lp136
S'3.8573e-05'
p137
aS'23'
p138
aa(lp139
S'3.8361e-05'
p140
aS'23'
p141
aa(lp142
NaNaa(lp143
S'1.0634e-02'
p144
aS'14'
p145
aa(lp146
NaNaa(lp147
NaNaaa(lp148
(lp149
S'2.3534e-05'
p150
aS'15'
p151
aa(lp152
S'2.5303e-05'
p153
aS'15'
p154
aa(lp155
S'2.5285e-05'
p156
aS'15'
p157
aa(lp158
S'2.5373e-04'
p159
aS'15'
p160
aa(lp161
S'2.5338e-04'
p162
aS'15'
p163
aa(lp164
S'2.5910e-04'
p165
aS'15'
p166
aa(lp167
S'1.8530e-05'
p168
aS'15'
p169
aa(lp170
NaNaa(lp171
NaNaa(lp172
NaNaa(lp173
NaNaaa(lp174
(lp175
S'3.6172e-05'
p176
aS'17'
p177
aa(lp178
S'2.7269e-05'
p179
aS'16'
p180
aa(lp181
S'2.7588e-05'
p182
aS'16'
p183
aa(lp184
S'2.5132e-05'
p185
aS'16'
p186
aa(lp187
S'2.5073e-05'
p188
aS'16'
p189
aa(lp190
NaNaa(lp191
NaNaa(lp192
NaNaa(lp193
NaNaa(lp194
NaNaa(lp195
NaNaaa(lp196
(lp197
S'4.2210e-05'
p198
aS'20'
p199
aa(lp200
S'4.1986e-05'
p201
aS'20'
p202
aa(lp203
S'4.1497e-05'
p204
aS'24'
p205
aa(lp206
S'3.6213e-05'
p207
aS'23'
p208
aa(lp209
S'3.6111e-05'
p210
aS'23'
p211
aa(lp212
S'2.1861e-05'
p213
aS'16'
p214
aa(lp215
NaNaa(lp216
NaNaa(lp217
NaNaa(lp218
NaNaa(lp219
NaNaaa(lp220
(lp221
S'6.6967e-05'
p222
aS'24'
p223
aa(lp224
S'5.2648e-05'
p225
aS'22'
p226
aa(lp227
S'5.2637e-05'
p228
aS'22'
p229
aa(lp230
S'5.3070e-05'
p231
aS'22'
p232
aa(lp233
S'5.3010e-05'
p234
aS'22'
p235
aa(lp236
S'9.4237e-04'
p237
aS'20'
p238
aa(lp239
S'5.5619e-04'
p240
aS'18'
p241
aa(lp242
NaNaa(lp243
S'1.1578e-02'
p244
aS'8'
p245
aa(lp246
NaNaa(lp247
NaNaaa(lp248
(lp249
S'1.6670e-05'
p250
aS'15'
p251
aa(lp252
S'2.1789e-05'
p253
aS'15'
p254
aa(lp255
S'2.1639e-05'
p256
aS'15'
p257
aa(lp258
S'2.6453e-05'
p259
aS'15'
p260
aa(lp261
S'2.4310e-05'
p262
aS'14'
p263
aa(lp264
S'1.4792e-04'
p265
aS'14'
p266
aa(lp267
NaNaa(lp268
S'9.2623e-03'
p269
aS'11'
p270
aa(lp271
NaNaa(lp272
NaNaa(lp273
NaNaaa(lp274
(lp275
S'1.3954e-05'
p276
aS'16'
p277
aa(lp278
S'1.4046e-05'
p279
aS'16'
p280
aa(lp281
S'1.4300e-05'
p282
aS'16'
p283
aa(lp284
S'1.4104e-05'
p285
aS'10'
p286
aa(lp287
NaNaa(lp288
NaNaa(lp289
NaNaa(lp290
NaNaa(lp291
NaNaa(lp292
NaNaa(lp293
NaNaaa(lp294
(lp295
S'4.4882e-05'
p296
aS'19'
p297
aa(lp298
S'4.4787e-05'
p299
aS'19'
p300
aa(lp301
S'4.4745e-05'
p302
aS'19'
p303
aa(lp304
S'4.6477e-05'
p305
aS'19'
p306
aa(lp307
S'4.6420e-05'
p308
aS'19'
p309
aa(lp310
S'3.5355e-05'
p311
aS'18'
p312
aa(lp313
NaNaa(lp314
NaNaa(lp315
NaNaa(lp316
NaNaa(lp317
NaNaaa(lp318
(lp319
S'1.7974e-04'
p320
aS'22'
p321
aa(lp322
S'1.7944e-04'
p323
aS'22'
p324
aa(lp325
S'1.7881e-04'
p326
aS'22'
p327
aa(lp328
S'1.7844e-04'
p329
aS'22'
p330
aa(lp331
S'1.7810e-04'
p332
aS'22'
p333
aa(lp334
S'1.8065e-04'
p335
aS'21'
p336
aa(lp337
S'6.9261e-05'
p338
aS'24'
p339
aa(lp340
S'6.9589e-05'
p341
aS'25'
p342
aa(lp343
NaNaa(lp344
NaNaa(lp345
NaNaaa(lp346
(lp347
S'3.7823e-05'
p348
aS'27'
p349
aa(lp350
S'3.7786e-05'
p351
aS'27'
p352
aa(lp353
S'3.7750e-05'
p354
aS'27'
p355
aa(lp356
S'3.7718e-05'
p357
aS'27'
p358
aa(lp359
S'3.7615e-05'
p360
aS'27'
p361
aa(lp362
S'3.9231e-05'
p363
aS'26'
p364
aa(lp365
S'3.9441e-05'
p366
aS'26'
p367
aa(lp368
NaNaa(lp369
NaNaa(lp370
NaNaa(lp371
NaNaaa(lp372
(lp373
S'2.1112e-05'
p374
aS'26'
p375
aa(lp376
S'2.1151e-05'
p377
aS'26'
p378
aa(lp379
S'2.1132e-05'
p380
aS'26'
p381
aa(lp382
S'2.1136e-05'
p383
aS'26'
p384
aa(lp385
S'2.1134e-05'
p386
aS'26'
p387
aa(lp388
S'2.3917e-05'
p389
aS'26'
p390
aa(lp391
NaNaa(lp392
NaNaa(lp393
NaNaa(lp394
NaNaa(lp395
NaNaaa(lp396
(lp397
S'1.2208e-05'
p398
aS'18'
p399
aa(lp400
S'1.2083e-05'
p401
aS'18'
p402
aa(lp403
S'1.2089e-05'
p404
aS'18'
p405
aa(lp406
NaNaa(lp407
S'1.8890e-05'
p408
aS'17'
p409
aa(lp410
NaNaa(lp411
NaNaa(lp412
NaNaa(lp413
NaNaa(lp414
NaNaa(lp415
NaNaaa(lp416
(lp417
S'4.8389e-05'
p418
aS'24'
p419
aa(lp420
S'5.3428e-05'
p421
aS'20'
p422
aa(lp423
S'1.7369e-05'
p424
aS'21'
p425
aa(lp426
S'5.5455e-05'
p427
aS'22'
p428
aa(lp429
NaNaa(lp430
NaNaa(lp431
NaNaa(lp432
NaNaa(lp433
NaNaa(lp434
NaNaa(lp435
NaNaaa(lp436
(lp437
S'3.1225e-05'
p438
aS'26'
p439
aa(lp440
S'2.0553e-05'
p441
aS'24'
p442
aa(lp443
S'1.5797e-05'
p444
aS'25'
p445
aa(lp446
S'2.0483e-05'
p447
aS'24'
p448
aa(lp449
S'1.5779e-05'
p450
aS'25'
p451
aa(lp452
S'1.5758e-05'
p453
aS'25'
p454
aa(lp455
NaNaa(lp456
NaNaa(lp457
NaNaa(lp458
NaNaa(lp459
NaNaaa(lp460
(lp461
S'1.4095e-05'
p462
aS'20'
p463
aa(lp464
S'3.5793e-05'
p465
aS'19'
p466
aa(lp467
S'2.5089e-05'
p468
aS'20'
p469
aa(lp470
S'3.6390e-05'
p471
aS'19'
p472
aa(lp473
S'1.4525e-05'
p474
aS'20'
p475
aa(lp476
S'1.4465e-05'
p477
aS'20'
p478
aa(lp479
S'1.3823e-04'
p480
aS'14'
p481
aa(lp482
NaNaa(lp483
NaNaa(lp484
NaNaa(lp485
NaNaaa(lp486
(lp487
S'2.7705e-03'
p488
aS'13'
p489
aa(lp490
S'2.7699e-03'
p491
aS'13'
p492
aa(lp493
NaNaa(lp494
S'2.7701e-03'
p495
aS'13'
p496
aa(lp497
S'4.2099e-05'
p498
aS'14'
p499
aa(lp500
S'2.5355e-03'
p501
aS'14'
p502
aa(lp503
S'2.5354e-03'
p504
aS'14'
p505
aa(lp506
S'8.4342e-03'
p507
aS'15'
p508
aa(lp509
S'4.3663e-05'
p510
aS'14'
p511
aa(lp512
NaNaa(lp513
NaNaaa(lp514
(lp515
S'2.6251e-04'
p516
aS'17'
p517
aa(lp518
S'2.6211e-04'
p519
aS'17'
p520
aa(lp521
S'2.6319e-04'
p522
aS'18'
p523
aa(lp524
S'2.6304e-04'
p525
aS'18'
p526
aa(lp527
S'2.7119e-05'
p528
aS'18'
p529
aa(lp530
S'2.6731e-05'
p531
aS'20'
p532
aa(lp533
S'2.6599e-05'
p534
aS'20'
p535
aa(lp536
S'3.2751e-04'
p537
aS'19'
p538
aa(lp539
S'3.6979e-04'
p540
aS'17'
p541
aa(lp542
S'3.0638e-05'
p543
aS'16'
p544
aa(lp545
S'2.7386e-05'
p546
aS'11'
p547
aaa(lp548
(lp549
S'4.1967e-05'
p550
aS'26'
p551
aa(lp552
S'4.1991e-05'
p553
aS'26'
p554
aa(lp555
S'3.5848e-05'
p556
aS'25'
p557
aa(lp558
S'3.5863e-05'
p559
aS'25'
p560
aa(lp561
S'3.5894e-05'
p562
aS'25'
p563
aa(lp564
S'3.5885e-05'
p565
aS'25'
p566
aa(lp567
S'1.9146e-05'
p568
aS'21'
p569
aa(lp570
S'1.9054e-05'
p571
aS'20'
p572
aa(lp573
S'1.7414e-05'
p574
aS'19'
p575
aa(lp576
NaNaa(lp577
S'5.4207e-02'
p578
aS'9'
p579
aaa(lp580
(lp581
S'4.2520e-05'
p582
aS'29'
p583
aa(lp584
S'4.2695e-05'
p585
aS'29'
p586
aa(lp587
S'4.2756e-05'
p588
aS'29'
p589
aa(lp590
S'3.4997e-05'
p591
aS'27'
p592
aa(lp593
S'3.5101e-05'
p594
aS'27'
p595
aa(lp596
NaNaa(lp597
NaNaa(lp598
S'2.0560e-04'
p599
aS'14'
p600
aa(lp601
S'1.3964e-05'
p602
aS'13'
p603
aa(lp604
NaNaa(lp605
NaNaaa(lp606
(lp607
S'4.2333e-05'
p608
aS'32'
p609
aa(lp610
S'4.2156e-05'
p611
aS'32'
p612
aa(lp613
S'4.2518e-05'
p614
aS'32'
p615
aa(lp616
S'4.2970e-05'
p617
aS'32'
p618
aa(lp619
S'4.3508e-05'
p620
aS'32'
p621
aa(lp622
NaNaa(lp623
S'5.4502e-02'
p624
ag245
aa(lp625
S'2.5223e-02'
p626
ag579
aa(lp627
S'3.3833e-02'
p628
aS'10'
p629
aa(lp630
NaNaa(lp631
S'8.9785e-05'
p632
aS'13'
p633
aaa(lp634
(lp635
S'4.6118e-05'
p636
aS'32'
p637
aa(lp638
S'4.6321e-05'
p639
aS'32'
p640
aa(lp641
S'4.6593e-05'
p642
aS'32'
p643
aa(lp644
S'4.6855e-05'
p645
aS'32'
p646
aa(lp647
S'4.7092e-05'
p648
aS'32'
p649
aa(lp650
S'3.9865e-05'
p651
aS'30'
p652
aa(lp653
S'4.8399e-04'
p654
aS'10'
p655
aa(lp656
NaNaa(lp657
S'5.0395e-03'
p658
aS'13'
p659
aa(lp660
S'1.2517e-05'
p661
aS'11'
p662
aa(lp663
S'4.3690e-02'
p664
aS'11'
p665
aaa(lp666
(lp667
S'2.3756e-05'
p668
aS'22'
p669
aa(lp670
S'2.3371e-05'
p671
aS'22'
p672
aa(lp673
S'2.2857e-05'
p674
aS'22'
p675
aa(lp676
S'2.3430e-05'
p677
aS'22'
p678
aa(lp679
S'2.3401e-05'
p680
aS'22'
p681
aa(lp682
S'1.4485e-02'
p683
aS'5'
p684
aa(lp685
NaNaa(lp686
S'1.4718e-05'
p687
aS'17'
p688
aa(lp689
S'9.5943e-05'
p690
aS'16'
p691
aa(lp692
S'3.8300e-02'
p693
aS'10'
p694
aa(lp695
NaNaaa(lp696
(lp697
S'3.8988e-05'
p698
aS'25'
p699
aa(lp700
S'3.8799e-05'
p701
aS'25'
p702
aa(lp703
S'3.8386e-05'
p704
aS'25'
p705
aa(lp706
S'3.8260e-05'
p707
aS'25'
p708
aa(lp709
S'3.8485e-05'
p710
aS'25'
p711
aa(lp712
NaNaa(lp713
NaNaa(lp714
S'3.9710e-02'
p715
aS'10'
p716
aa(lp717
NaNaa(lp718
NaNaa(lp719
NaNaaa(lp720
(lp721
S'2.4890e-05'
p722
aS'20'
p723
aa(lp724
S'2.4826e-05'
p725
aS'20'
p726
aa(lp727
S'2.4841e-05'
p728
aS'20'
p729
aa(lp730
S'2.4815e-05'
p731
aS'20'
p732
aa(lp733
S'2.4816e-05'
p734
aS'20'
p735
aa(lp736
S'6.0634e-05'
p737
aS'21'
p738
aa(lp739
S'2.4804e-05'
p740
aS'20'
p741
aa(lp742
S'2.4829e-05'
p743
aS'20'
p744
aa(lp745
S'2.4762e-05'
p746
aS'20'
p747
aa(lp748
S'2.4726e-05'
p749
aS'20'
p750
aa(lp751
S'6.2119e-02'
p752
ag579
aaa(lp753
(lp754
S'3.0032e-05'
p755
aS'22'
p756
aa(lp757
S'3.1729e-05'
p758
aS'21'
p759
aa(lp760
S'3.1734e-05'
p761
aS'21'
p762
aa(lp763
S'3.1816e-05'
p764
aS'21'
p765
aa(lp766
S'2.4859e-05'
p767
aS'19'
p768
aa(lp769
S'2.7527e-05'
p770
aS'21'
p771
aa(lp772
S'2.7459e-05'
p773
aS'21'
p774
aa(lp775
S'2.7425e-05'
p776
aS'21'
p777
aa(lp778
NaNaa(lp779
S'2.6306e-05'
p780
aS'21'
p781
aa(lp782
NaNaaa(lp783
(lp784
S'2.5793e-05'
p785
aS'19'
p786
aa(lp787
S'2.5832e-05'
p788
aS'19'
p789
aa(lp790
S'2.5762e-05'
p791
aS'19'
p792
aa(lp793
S'2.5836e-05'
p794
aS'19'
p795
aa(lp796
S'2.5832e-05'
p797
aS'19'
p798
aa(lp799
S'9.6650e-06'
p800
aS'15'
p801
aa(lp802
S'1.1403e-05'
p803
aS'13'
p804
aa(lp805
S'1.1379e-05'
p806
aS'13'
p807
aa(lp808
S'2.0660e-02'
p809
aS'10'
p810
aa(lp811
S'1.1398e-05'
p812
aS'13'
p813
aa(lp814
NaNaaa(lp815
(lp816
S'3.7897e-05'
p817
aS'26'
p818
aa(lp819
S'3.7815e-05'
p820
aS'26'
p821
aa(lp822
S'3.7842e-05'
p823
aS'26'
p824
aa(lp825
S'3.6139e-05'
p826
aS'22'
p827
aa(lp828
S'3.5275e-05'
p829
aS'27'
p830
aa(lp831
S'5.4744e-05'
p832
aS'27'
p833
aa(lp834
S'5.4658e-05'
p835
aS'27'
p836
aa(lp837
S'5.4784e-05'
p838
aS'27'
p839
aa(lp840
S'5.4657e-05'
p841
aS'27'
p842
aa(lp843
S'1.9084e-03'
p844
ag579
aa(lp845
NaNaaa(lp846
(lp847
S'2.3907e-05'
p848
aS'25'
p849
aa(lp850
S'2.3914e-05'
p851
aS'25'
p852
aa(lp853
S'2.3976e-05'
p854
aS'25'
p855
aa(lp856
S'2.4001e-05'
p857
aS'25'
p858
aa(lp859
S'2.4092e-05'
p860
aS'25'
p861
aa(lp862
S'2.8163e-05'
p863
aS'24'
p864
aa(lp865
S'1.3864e-05'
p866
aS'18'
p867
aa(lp868
S'1.3811e-05'
p869
aS'18'
p870
aa(lp871
S'3.3753e-05'
p872
aS'14'
p873
aa(lp874
S'2.8596e-02'
p875
aS'14'
p876
aa(lp877
NaNaaa(lp878
(lp879
S'1.9999e-05'
p880
aS'17'
p881
aa(lp882
S'1.9947e-05'
p883
aS'17'
p884
aa(lp885
S'1.9951e-05'
p886
aS'17'
p887
aa(lp888
S'1.9986e-05'
p889
aS'17'
p890
aa(lp891
S'1.9937e-05'
p892
aS'17'
p893
aa(lp894
S'2.6166e-05'
p895
aS'18'
p896
aa(lp897
S'2.6145e-05'
p898
aS'18'
p899
aa(lp900
S'2.6170e-05'
p901
aS'18'
p902
aa(lp903
NaNaa(lp904
NaNaa(lp905
NaNaaa(lp906
(lp907
S'6.5659e-05'
p908
aS'22'
p909
aa(lp910
S'1.8834e-05'
p911
aS'15'
p912
aa(lp913
S'1.7743e-05'
p914
aS'15'
p915
aa(lp916
S'1.8244e-05'
p917
aS'15'
p918
aa(lp919
S'3.9075e-05'
p920
aS'11'
p921
aa(lp922
S'4.9216e-05'
p923
aS'17'
p924
aa(lp925
S'4.1365e-05'
p926
aS'17'
p927
aa(lp928
S'7.0234e-05'
p929
aS'13'
p930
aa(lp931
S'3.0268e-05'
p932
aS'18'
p933
aa(lp934
S'2.9030e-05'
p935
aS'18'
p936
aa(lp937
S'2.5325e-02'
p938
aS'11'
p939
aaa(lp940
(lp941
S'4.6016e-05'
p942
aS'19'
p943
aa(lp944
S'4.6316e-05'
p945
aS'19'
p946
aa(lp947
S'4.5917e-05'
p948
aS'19'
p949
aa(lp950
S'5.8066e-05'
p951
aS'19'
p952
aa(lp953
S'5.8019e-05'
p954
aS'19'
p955
aa(lp956
S'2.9764e-04'
p957
aS'17'
p958
aa(lp959
S'3.8433e-02'
p960
aS'12'
p961
aa(lp962
S'5.4748e-04'
p963
aS'15'
p964
aa(lp965
S'3.4487e-04'
p966
aS'16'
p967
aa(lp968
S'3.4448e-04'
p969
aS'16'
p970
aa(lp971
S'8.8157e-05'
p972
aS'19'
p973
aaa(lp974
(lp975
S'4.2155e-05'
p976
aS'22'
p977
aa(lp978
S'4.2005e-05'
p979
aS'22'
p980
aa(lp981
S'5.7123e-05'
p982
aS'23'
p983
aa(lp984
S'5.7038e-05'
p985
aS'23'
p986
aa(lp987
S'5.6991e-05'
p988
aS'23'
p989
aa(lp990
S'5.7081e-05'
p991
aS'23'
p992
aa(lp993
S'5.7065e-05'
p994
aS'23'
p995
aa(lp996
S'4.8633e-05'
p997
aS'22'
p998
aa(lp999
S'4.8604e-05'
p1000
aS'22'
p1001
aa(lp1002
S'4.8655e-05'
p1003
aS'22'
p1004
aa(lp1005
S'6.3908e-05'
p1006
aS'23'
p1007
aaa(lp1008
(lp1009
S'4.7107e-05'
p1010
aS'25'
p1011
aa(lp1012
S'4.6851e-05'
p1013
aS'25'
p1014
aa(lp1015
S'4.6808e-05'
p1016
aS'25'
p1017
aa(lp1018
S'3.6302e-05'
p1019
aS'21'
p1020
aa(lp1021
S'1.2182e-04'
p1022
ag245
aa(lp1023
S'1.2399e-02'
p1024
aS'13'
p1025
aa(lp1026
S'5.2745e-05'
p1027
aS'24'
p1028
aa(lp1029
S'6.3083e-05'
p1030
aS'22'
p1031
aa(lp1032
S'4.5551e-04'
p1033
ag579
aa(lp1034
S'3.0550e-05'
p1035
aS'17'
p1036
aa(lp1037
S'5.0676e-05'
p1038
aS'24'
p1039
aaa(lp1040
(lp1041
S'1.2862e-05'
p1042
aS'18'
p1043
aa(lp1044
S'9.0145e-06'
p1045
aS'14'
p1046
aa(lp1047
S'1.2822e-05'
p1048
aS'18'
p1049
aa(lp1050
S'3.3984e-05'
p1051
aS'18'
p1052
aa(lp1053
S'3.3952e-05'
p1054
aS'18'
p1055
aa(lp1056
S'3.3864e-05'
p1057
aS'18'
p1058
aa(lp1059
NaNaa(lp1060
NaNaa(lp1061
NaNaa(lp1062
NaNaa(lp1063
NaNaaa(lp1064
(lp1065
S'3.3223e-05'
p1066
aS'24'
p1067
aa(lp1068
S'5.2407e-05'
p1069
aS'25'
p1070
aa(lp1071
S'1.1951e-04'
p1072
aS'28'
p1073
aa(lp1074
S'1.1979e-04'
p1075
aS'28'
p1076
aa(lp1077
S'7.8410e-05'
p1078
aS'28'
p1079
aa(lp1080
S'1.2037e-04'
p1081
aS'28'
p1082
aa(lp1083
S'7.8386e-05'
p1084
aS'28'
p1085
aa(lp1086
NaNaa(lp1087
NaNaa(lp1088
NaNaa(lp1089
NaNaaa(lp1090
(lp1091
S'5.5178e-05'
p1092
aS'25'
p1093
aa(lp1094
S'5.2929e-05'
p1095
aS'25'
p1096
aa(lp1097
S'2.3316e-05'
p1098
aS'24'
p1099
aa(lp1100
S'2.3318e-05'
p1101
aS'24'
p1102
aa(lp1103
S'2.4565e-05'
p1104
aS'23'
p1105
aa(lp1106
S'2.4511e-05'
p1107
aS'23'
p1108
aa(lp1109
S'3.5864e-05'
p1110
aS'21'
p1111
aa(lp1112
NaNaa(lp1113
NaNaa(lp1114
NaNaa(lp1115
NaNaaa(lp1116
(lp1117
S'1.1339e-04'
p1118
aS'24'
p1119
aa(lp1120
S'5.5384e-05'
p1121
aS'22'
p1122
aa(lp1123
S'5.5325e-05'
p1124
aS'22'
p1125
aa(lp1126
S'5.5529e-05'
p1127
aS'22'
p1128
aa(lp1129
S'5.5600e-05'
p1130
aS'22'
p1131
aa(lp1132
S'1.1368e-04'
p1133
aS'24'
p1134
aa(lp1135
S'6.6388e-05'
p1136
aS'23'
p1137
aa(lp1138
NaNaa(lp1139
NaNaa(lp1140
NaNaa(lp1141
NaNaaa(lp1142
(lp1143
S'5.5256e-05'
p1144
aS'23'
p1145
aa(lp1146
S'7.8500e-05'
p1147
aS'25'
p1148
aa(lp1149
S'7.8570e-05'
p1150
aS'25'
p1151
aa(lp1152
S'7.8631e-05'
p1153
aS'25'
p1154
aa(lp1155
S'2.4436e-05'
p1156
aS'16'
p1157
aa(lp1158
S'7.8777e-05'
p1159
aS'25'
p1160
aa(lp1161
S'2.1854e-02'
p1162
aS'11'
p1163
aa(lp1164
NaNaa(lp1165
NaNaa(lp1166
NaNaa(lp1167
NaNaaa(lp1168
(lp1169
S'6.4707e-05'
p1170
aS'23'
p1171
aa(lp1172
S'3.3009e-05'
p1173
aS'21'
p1174
aa(lp1175
S'6.4885e-05'
p1176
aS'23'
p1177
aa(lp1178
S'4.4737e-05'
p1179
aS'21'
p1180
aa(lp1181
S'3.2976e-05'
p1182
aS'21'
p1183
aa(lp1184
S'3.2942e-05'
p1185
aS'21'
p1186
aa(lp1187
NaNaa(lp1188
NaNaa(lp1189
NaNaa(lp1190
NaNaa(lp1191
NaNaaa(lp1192
(lp1193
S'2.4493e-05'
p1194
aS'26'
p1195
aa(lp1196
S'2.4543e-05'
p1197
aS'26'
p1198
aa(lp1199
S'2.4575e-05'
p1200
aS'26'
p1201
aa(lp1202
S'6.2304e-05'
p1203
aS'29'
p1204
aa(lp1205
S'2.7294e-05'
p1206
aS'26'
p1207
aa(lp1208
S'2.3586e-05'
p1209
aS'27'
p1210
aa(lp1211
NaNaa(lp1212
NaNaa(lp1213
NaNaa(lp1214
NaNaa(lp1215
NaNaaa(lp1216
(lp1217
S'5.1240e-05'
p1218
aS'27'
p1219
aa(lp1220
S'5.1298e-05'
p1221
aS'27'
p1222
aa(lp1223
S'5.1346e-05'
p1224
aS'27'
p1225
aa(lp1226
S'8.1802e-05'
p1227
aS'29'
p1228
aa(lp1229
S'8.1899e-05'
p1230
aS'29'
p1231
aa(lp1232
S'8.1848e-05'
p1233
aS'29'
p1234
aa(lp1235
NaNaa(lp1236
NaNaa(lp1237
NaNaa(lp1238
NaNaa(lp1239
NaNaaa(lp1240
(lp1241
S'1.4519e-05'
p1242
aS'19'
p1243
aa(lp1244
S'1.3974e-05'
p1245
aS'18'
p1246
aa(lp1247
S'1.3995e-05'
p1248
aS'18'
p1249
aa(lp1250
S'1.4519e-05'
p1251
aS'19'
p1252
aa(lp1253
S'1.4555e-05'
p1254
aS'19'
p1255
aa(lp1256
S'7.0406e-05'
p1257
aS'21'
p1258
aa(lp1259
NaNaa(lp1260
NaNaa(lp1261
NaNaa(lp1262
NaNaa(lp1263
NaNaaa(lp1264
(lp1265
S'1.7936e-05'
p1266
aS'22'
p1267
aa(lp1268
S'1.7892e-05'
p1269
aS'22'
p1270
aa(lp1271
S'6.1999e-05'
p1272
aS'25'
p1273
aa(lp1274
S'6.2119e-05'
p1275
aS'25'
p1276
aa(lp1277
S'6.2154e-05'
p1278
aS'25'
p1279
aa(lp1280
S'1.4089e-05'
p1281
aS'22'
p1282
aa(lp1283
S'1.4418e-05'
p1284
aS'21'
p1285
aa(lp1286
NaNaa(lp1287
NaNaa(lp1288
NaNaa(lp1289
S'2.2578e-02'
p1290
aS'11'
p1291
aaa(lp1292
(lp1293
S'7.3935e-05'
p1294
aS'28'
p1295
aa(lp1296
S'7.4206e-05'
p1297
aS'28'
p1298
aa(lp1299
S'7.4395e-05'
p1300
aS'28'
p1301
aa(lp1302
S'7.4638e-05'
p1303
aS'28'
p1304
aa(lp1305
S'7.5003e-05'
p1306
aS'28'
p1307
aa(lp1308
S'7.5178e-05'
p1309
aS'28'
p1310
aa(lp1311
S'7.2572e-05'
p1312
aS'25'
p1313
aa(lp1314
S'2.0673e-03'
p1315
aS'7'
p1316
aa(lp1317
NaNaa(lp1318
NaNaa(lp1319
NaNaaa(lp1320
(lp1321
S'3.1865e-05'
p1322
aS'21'
p1323
aa(lp1324
S'4.3250e-05'
p1325
aS'22'
p1326
aa(lp1327
S'4.3395e-05'
p1328
aS'22'
p1329
aa(lp1330
S'4.3440e-05'
p1331
aS'22'
p1332
aa(lp1333
S'6.0391e-05'
p1334
aS'22'
p1335
aa(lp1336
S'6.0358e-05'
p1337
aS'22'
p1338
aa(lp1339
NaNaa(lp1340
NaNaa(lp1341
NaNaa(lp1342
S'1.2926e-02'
p1343
aS'10'
p1344
aa(lp1345
S'2.6452e-02'
p1346
aS'11'
p1347
aaa(lp1348
(lp1349
S'1.0932e-05'
p1350
aS'15'
p1351
aa(lp1352
S'1.0926e-05'
p1353
aS'15'
p1354
aa(lp1355
S'1.0873e-05'
p1356
aS'15'
p1357
aa(lp1358
S'1.0909e-05'
p1359
aS'15'
p1360
aa(lp1361
S'1.4252e-05'
p1362
aS'14'
p1363
aa(lp1364
S'1.6519e-03'
p1365
aS'13'
p1366
aa(lp1367
S'1.3570e-05'
p1368
aS'15'
p1369
aa(lp1370
NaNaa(lp1371
NaNaa(lp1372
NaNaa(lp1373
NaNaaaa(lp1374
(lp1375
(lp1376
S'1.7469e-05'
p1377
aS'16'
p1378
aa(lp1379
S'1.7472e-05'
p1380
aS'16'
p1381
aa(lp1382
S'1.7408e-05'
p1383
aS'16'
p1384
aa(lp1385
S'1.1144e-03'
p1386
aS'16'
p1387
aa(lp1388
S'2.2065e-05'
p1389
aS'16'
p1390
aa(lp1391
S'2.2064e-05'
p1392
aS'16'
p1393
aa(lp1394
S'5.1124e-03'
p1395
aS'16'
p1396
aa(lp1397
S'2.2040e-05'
p1398
aS'16'
p1399
aa(lp1400
NaNaa(lp1401
NaNaa(lp1402
NaNaaa(lp1403
(lp1404
S'2.0810e-05'
p1405
aS'18'
p1406
aa(lp1407
S'2.1191e-05'
p1408
aS'18'
p1409
aa(lp1410
S'2.1092e-05'
p1411
aS'18'
p1412
aa(lp1413
S'2.1634e-05'
p1414
aS'19'
p1415
aa(lp1416
S'2.1506e-05'
p1417
aS'19'
p1418
aa(lp1419
S'2.2161e-05'
p1420
aS'19'
p1421
aa(lp1422
NaNaa(lp1423
NaNaa(lp1424
NaNaa(lp1425
NaNaa(lp1426
NaNaaa(lp1427
(lp1428
S'2.1005e-05'
p1429
aS'23'
p1430
aa(lp1431
S'1.6605e-05'
p1432
aS'19'
p1433
aa(lp1434
S'1.6209e-05'
p1435
aS'19'
p1436
aa(lp1437
S'2.1384e-05'
p1438
aS'23'
p1439
aa(lp1440
S'2.1578e-05'
p1441
aS'23'
p1442
aa(lp1443
S'2.1966e-05'
p1444
aS'23'
p1445
aa(lp1446
NaNaa(lp1447
NaNaa(lp1448
NaNaa(lp1449
NaNaa(lp1450
NaNaaa(lp1451
(lp1452
S'2.1084e-05'
p1453
aS'19'
p1454
aa(lp1455
S'2.1122e-05'
p1456
aS'19'
p1457
aa(lp1458
S'2.1066e-05'
p1459
aS'19'
p1460
aa(lp1461
S'2.0607e-05'
p1462
aS'20'
p1463
aa(lp1464
S'2.0579e-05'
p1465
aS'20'
p1466
aa(lp1467
NaNaa(lp1468
NaNaa(lp1469
NaNaa(lp1470
NaNaa(lp1471
NaNaa(lp1472
NaNaaa(lp1473
(lp1474
S'3.5623e-05'
p1475
aS'22'
p1476
aa(lp1477
S'3.5737e-05'
p1478
aS'22'
p1479
aa(lp1480
S'3.5783e-05'
p1481
aS'22'
p1482
aa(lp1483
S'3.4376e-05'
p1484
aS'25'
p1485
aa(lp1486
S'3.4912e-05'
p1487
aS'25'
p1488
aa(lp1489
S'3.4074e-05'
p1490
aS'25'
p1491
aa(lp1492
S'3.3906e-05'
p1493
aS'25'
p1494
aa(lp1495
S'3.4348e-05'
p1496
aS'25'
p1497
aa(lp1498
S'2.0606e-02'
p1499
aS'14'
p1500
aa(lp1501
S'3.3980e-05'
p1502
aS'25'
p1503
aa(lp1504
S'3.7080e-05'
p1505
aS'24'
p1506
aaa(lp1507
(lp1508
S'2.3534e-05'
p1509
aS'15'
p1510
aa(lp1511
S'2.3602e-05'
p1512
aS'15'
p1513
aa(lp1514
S'2.3676e-05'
p1515
aS'15'
p1516
aa(lp1517
S'2.3707e-05'
p1518
aS'15'
p1519
aa(lp1520
S'1.8809e-05'
p1521
aS'15'
p1522
aa(lp1523
NaNaa(lp1524
NaNaa(lp1525
NaNaa(lp1526
NaNaa(lp1527
NaNaa(lp1528
NaNaaa(lp1529
(lp1530
S'3.6172e-05'
p1531
aS'17'
p1532
aa(lp1533
S'2.8185e-05'
p1534
aS'19'
p1535
aa(lp1536
S'2.8135e-05'
p1537
aS'19'
p1538
aa(lp1539
S'2.8198e-05'
p1540
aS'19'
p1541
aa(lp1542
S'2.8816e-05'
p1543
aS'17'
p1544
aa(lp1545
S'2.8847e-05'
p1546
aS'17'
p1547
aa(lp1548
NaNaa(lp1549
NaNaa(lp1550
NaNaa(lp1551
NaNaa(lp1552
NaNaaa(lp1553
(lp1554
S'4.2210e-05'
p1555
aS'20'
p1556
aa(lp1557
S'4.2317e-05'
p1558
aS'24'
p1559
aa(lp1560
S'4.2183e-05'
p1561
aS'24'
p1562
aa(lp1563
S'4.2019e-05'
p1564
aS'24'
p1565
aa(lp1566
S'4.1920e-05'
p1567
aS'24'
p1568
aa(lp1569
S'4.1774e-05'
p1570
aS'24'
p1571
aa(lp1572
NaNaa(lp1573
NaNaa(lp1574
NaNaa(lp1575
NaNaa(lp1576
NaNaaa(lp1577
(lp1578
S'6.6967e-05'
p1579
aS'24'
p1580
aa(lp1581
S'6.6677e-05'
p1582
aS'24'
p1583
aa(lp1584
S'5.2873e-05'
p1585
aS'22'
p1586
aa(lp1587
S'5.2773e-05'
p1588
aS'22'
p1589
aa(lp1590
S'5.2825e-05'
p1591
aS'22'
p1592
aa(lp1593
S'5.2932e-05'
p1594
aS'22'
p1595
aa(lp1596
S'6.5934e-05'
p1597
aS'24'
p1598
aa(lp1599
S'6.5681e-05'
p1600
aS'24'
p1601
aa(lp1602
S'6.5500e-05'
p1603
aS'24'
p1604
aa(lp1605
S'6.5348e-05'
p1606
aS'24'
p1607
aa(lp1608
S'1.8796e-03'
p1609
ag245
aaa(lp1610
(lp1611
S'1.6670e-05'
p1612
aS'15'
p1613
aa(lp1614
S'1.6782e-05'
p1615
aS'15'
p1616
aa(lp1617
S'1.6758e-05'
p1618
aS'15'
p1619
aa(lp1620
S'1.6728e-05'
p1621
aS'14'
p1622
aa(lp1623
S'1.6403e-05'
p1624
aS'14'
p1625
aa(lp1626
S'1.6403e-05'
p1627
aS'14'
p1628
aa(lp1629
S'1.6359e-05'
p1630
aS'14'
p1631
aa(lp1632
S'1.6357e-05'
p1633
aS'14'
p1634
aa(lp1635
S'1.6317e-05'
p1636
aS'14'
p1637
aa(lp1638
S'1.6269e-05'
p1639
aS'14'
p1640
aa(lp1641
NaNaaa(lp1642
(lp1643
S'1.3954e-05'
p1644
aS'16'
p1645
aa(lp1646
S'1.3820e-05'
p1647
aS'16'
p1648
aa(lp1649
S'1.3855e-05'
p1650
aS'16'
p1651
aa(lp1652
NaNaa(lp1653
NaNaa(lp1654
NaNaa(lp1655
NaNaa(lp1656
NaNaa(lp1657
NaNaa(lp1658
NaNaa(lp1659
NaNaaa(lp1660
(lp1661
S'4.4882e-05'
p1662
aS'19'
p1663
aa(lp1664
S'4.4773e-05'
p1665
aS'19'
p1666
aa(lp1667
S'4.4741e-05'
p1668
aS'19'
p1669
aa(lp1670
S'4.4706e-05'
p1671
aS'19'
p1672
aa(lp1673
S'4.4618e-05'
p1674
aS'19'
p1675
aa(lp1676
S'4.4612e-05'
p1677
aS'19'
p1678
aa(lp1679
S'4.4296e-05'
p1680
aS'19'
p1681
aa(lp1682
S'4.4203e-05'
p1683
aS'19'
p1684
aa(lp1685
S'4.4636e-05'
p1686
aS'19'
p1687
aa(lp1688
S'4.4190e-05'
p1689
aS'19'
p1690
aa(lp1691
S'4.4070e-05'
p1692
aS'19'
p1693
aaa(lp1694
(lp1695
S'1.7974e-04'
p1696
aS'22'
p1697
aa(lp1698
S'1.7959e-04'
p1699
aS'22'
p1700
aa(lp1701
S'1.7941e-04'
p1702
aS'22'
p1703
aa(lp1704
S'1.7910e-04'
p1705
aS'22'
p1706
aa(lp1707
S'1.7885e-04'
p1708
aS'22'
p1709
aa(lp1710
S'1.7879e-04'
p1711
aS'22'
p1712
aa(lp1713
S'1.7780e-04'
p1714
aS'22'
p1715
aa(lp1716
S'1.7770e-04'
p1717
aS'22'
p1718
aa(lp1719
S'1.7759e-04'
p1720
aS'22'
p1721
aa(lp1722
S'1.7744e-04'
p1723
aS'22'
p1724
aa(lp1725
S'7.1049e-05'
p1726
aS'22'
p1727
aaa(lp1728
(lp1729
S'3.7823e-05'
p1730
aS'27'
p1731
aa(lp1732
S'3.7694e-05'
p1733
aS'27'
p1734
aa(lp1735
S'3.7901e-05'
p1736
aS'27'
p1737
aa(lp1738
S'3.7569e-05'
p1739
aS'27'
p1740
aa(lp1741
S'3.7635e-05'
p1742
aS'27'
p1743
aa(lp1744
S'3.7516e-05'
p1745
aS'27'
p1746
aa(lp1747
S'3.7503e-05'
p1748
aS'27'
p1749
aa(lp1750
S'3.7650e-05'
p1751
aS'27'
p1752
aa(lp1753
S'3.7508e-05'
p1754
aS'27'
p1755
aa(lp1756
S'4.7711e-05'
p1757
aS'26'
p1758
aa(lp1759
S'4.7789e-05'
p1760
aS'26'
p1761
aaa(lp1762
(lp1763
S'2.1112e-05'
p1764
aS'26'
p1765
aa(lp1766
S'2.1100e-05'
p1767
aS'26'
p1768
aa(lp1769
S'2.1075e-05'
p1770
aS'26'
p1771
aa(lp1772
S'2.1125e-05'
p1773
aS'26'
p1774
aa(lp1775
S'2.1071e-05'
p1776
aS'26'
p1777
aa(lp1778
S'2.1037e-05'
p1779
aS'26'
p1780
aa(lp1781
S'2.1065e-05'
p1782
aS'26'
p1783
aa(lp1784
S'2.1048e-05'
p1785
aS'26'
p1786
aa(lp1787
S'2.1093e-05'
p1788
aS'26'
p1789
aa(lp1790
S'2.1846e-05'
p1791
aS'25'
p1792
aa(lp1793
S'2.1855e-05'
p1794
aS'25'
p1795
aaa(lp1796
(lp1797
S'1.2208e-05'
p1798
aS'18'
p1799
aa(lp1800
S'1.2182e-05'
p1801
aS'18'
p1802
aa(lp1803
S'1.2092e-05'
p1804
aS'18'
p1805
aa(lp1806
S'1.2017e-05'
p1807
aS'18'
p1808
aa(lp1809
S'1.2071e-05'
p1810
aS'18'
p1811
aa(lp1812
S'1.2019e-05'
p1813
aS'18'
p1814
aa(lp1815
S'1.1956e-05'
p1816
aS'18'
p1817
aa(lp1818
S'1.1967e-05'
p1819
aS'18'
p1820
aa(lp1821
S'3.4670e-05'
p1822
aS'18'
p1823
aa(lp1824
NaNaa(lp1825
NaNaaa(lp1826
(lp1827
S'4.8389e-05'
p1828
aS'24'
p1829
aa(lp1830
S'4.9246e-05'
p1831
aS'24'
p1832
aa(lp1833
S'5.0002e-05'
p1834
aS'24'
p1835
aa(lp1836
S'1.6115e-05'
p1837
aS'20'
p1838
aa(lp1839
S'1.7239e-05'
p1840
aS'21'
p1841
aa(lp1842
S'1.7286e-05'
p1843
aS'21'
p1844
aa(lp1845
S'1.6851e-05'
p1846
aS'22'
p1847
aa(lp1848
S'1.6890e-05'
p1849
aS'22'
p1850
aa(lp1851
NaNaa(lp1852
NaNaa(lp1853
NaNaaa(lp1854
(lp1855
S'3.1225e-05'
p1856
aS'26'
p1857
aa(lp1858
S'3.1305e-05'
p1859
aS'26'
p1860
aa(lp1861
S'3.0640e-05'
p1862
aS'27'
p1863
aa(lp1864
S'1.8548e-05'
p1865
aS'26'
p1866
aa(lp1867
S'1.8490e-05'
p1868
aS'26'
p1869
aa(lp1870
S'1.8457e-05'
p1871
aS'26'
p1872
aa(lp1873
S'1.8485e-05'
p1874
aS'26'
p1875
aa(lp1876
NaNaa(lp1877
NaNaa(lp1878
S'1.1052e-02'
p1879
ag245
aa(lp1880
NaNaaa(lp1881
(lp1882
S'1.4095e-05'
p1883
aS'20'
p1884
aa(lp1885
S'2.3893e-05'
p1886
aS'20'
p1887
aa(lp1888
S'2.3580e-05'
p1889
aS'20'
p1890
aa(lp1891
S'1.3863e-05'
p1892
aS'20'
p1893
aa(lp1894
S'1.3906e-05'
p1895
aS'20'
p1896
aa(lp1897
S'1.4032e-05'
p1898
aS'20'
p1899
aa(lp1900
S'1.4131e-05'
p1901
aS'20'
p1902
aa(lp1903
S'6.4463e-03'
p1904
aS'13'
p1905
aa(lp1906
S'4.5371e-03'
p1907
aS'14'
p1908
aa(lp1909
NaNaa(lp1910
NaNaaa(lp1911
(lp1912
S'2.7705e-03'
p1913
aS'13'
p1914
aa(lp1915
S'2.7703e-03'
p1916
aS'13'
p1917
aa(lp1918
S'2.7706e-03'
p1919
aS'13'
p1920
aa(lp1921
S'2.7694e-03'
p1922
aS'13'
p1923
aa(lp1924
S'2.7697e-03'
p1925
aS'13'
p1926
aa(lp1927
S'2.7694e-03'
p1928
aS'13'
p1929
aa(lp1930
S'2.7591e-03'
p1931
aS'13'
p1932
aa(lp1933
S'2.7580e-03'
p1934
aS'13'
p1935
aa(lp1936
S'2.7572e-03'
p1937
aS'13'
p1938
aa(lp1939
NaNaa(lp1940
NaNaaa(lp1941
(lp1942
S'2.6251e-04'
p1943
aS'17'
p1944
aa(lp1945
S'2.6201e-04'
p1946
aS'17'
p1947
aa(lp1948
S'2.6326e-04'
p1949
aS'18'
p1950
aa(lp1951
S'2.6269e-04'
p1952
aS'18'
p1953
aa(lp1954
S'2.6530e-04'
p1955
aS'18'
p1956
aa(lp1957
S'2.6479e-04'
p1958
aS'18'
p1959
aa(lp1960
S'2.6486e-04'
p1961
aS'18'
p1962
aa(lp1963
S'2.6443e-04'
p1964
aS'18'
p1965
aa(lp1966
S'2.6430e-04'
p1967
aS'18'
p1968
aa(lp1969
S'1.2997e-02'
p1970
ag579
aa(lp1971
S'2.3071e-04'
p1972
aS'17'
p1973
aaa(lp1974
(lp1975
S'4.1967e-05'
p1976
aS'26'
p1977
aa(lp1978
S'4.1965e-05'
p1979
aS'26'
p1980
aa(lp1981
S'2.1827e-05'
p1982
aS'21'
p1983
aa(lp1984
S'2.1853e-05'
p1985
aS'21'
p1986
aa(lp1987
S'2.1740e-05'
p1988
aS'21'
p1989
aa(lp1990
S'2.1748e-05'
p1991
aS'21'
p1992
aa(lp1993
S'1.9506e-05'
p1994
aS'20'
p1995
aa(lp1996
S'1.9541e-05'
p1997
aS'20'
p1998
aa(lp1999
NaNaa(lp2000
S'4.4522e-03'
p2001
aS'6'
p2002
aa(lp2003
NaNaaa(lp2004
(lp2005
S'4.2520e-05'
p2006
aS'29'
p2007
aa(lp2008
S'4.2759e-05'
p2009
aS'29'
p2010
aa(lp2011
S'4.2921e-05'
p2012
aS'29'
p2013
aa(lp2014
S'3.9046e-05'
p2015
aS'28'
p2016
aa(lp2017
NaNaa(lp2018
S'4.2216e-05'
p2019
aS'11'
p2020
aa(lp2021
S'1.3701e-05'
p2022
aS'12'
p2023
aa(lp2024
NaNaa(lp2025
S'5.0660e-02'
p2026
aS'16'
p2027
aa(lp2028
NaNaa(lp2029
NaNaaa(lp2030
(lp2031
S'4.2333e-05'
p2032
aS'32'
p2033
aa(lp2034
S'4.2303e-05'
p2035
aS'32'
p2036
aa(lp2037
S'4.2925e-05'
p2038
aS'32'
p2039
aa(lp2040
S'2.6466e-05'
p2041
aS'18'
p2042
aa(lp2043
S'2.5350e-05'
p2044
aS'25'
p2045
aa(lp2046
S'2.1419e-02'
p2047
aS'17'
p2048
aa(lp2049
S'2.0491e-02'
p2050
aS'19'
p2051
aa(lp2052
NaNaa(lp2053
S'5.0158e-02'
p2054
aS'11'
p2055
aa(lp2056
NaNaa(lp2057
NaNaaa(lp2058
(lp2059
S'4.6118e-05'
p2060
aS'32'
p2061
aa(lp2062
S'4.6240e-05'
p2063
aS'32'
p2064
aa(lp2065
S'4.6217e-05'
p2066
aS'32'
p2067
aa(lp2068
S'3.9876e-05'
p2069
aS'30'
p2070
aa(lp2071
S'3.9862e-05'
p2072
aS'30'
p2073
aa(lp2074
S'5.8398e-04'
p2075
aS'14'
p2076
aa(lp2077
S'1.3402e-03'
p2078
aS'14'
p2079
aa(lp2080
S'7.1874e-03'
p2081
ag245
aa(lp2082
NaNaa(lp2083
NaNaa(lp2084
NaNaaa(lp2085
(lp2086
S'2.3756e-05'
p2087
aS'22'
p2088
aa(lp2089
S'2.3442e-05'
p2090
aS'22'
p2091
aa(lp2092
S'2.3409e-05'
p2093
aS'22'
p2094
aa(lp2095
S'2.3792e-05'
p2096
aS'20'
p2097
aa(lp2098
S'2.3824e-05'
p2099
aS'20'
p2100
aa(lp2101
S'1.1626e-05'
p2102
aS'12'
p2103
aa(lp2104
S'1.1662e-05'
p2105
aS'12'
p2106
aa(lp2107
S'6.1983e-02'
p2108
aS'13'
p2109
aa(lp2110
NaNaa(lp2111
NaNaa(lp2112
NaNaaa(lp2113
(lp2114
S'3.8988e-05'
p2115
aS'25'
p2116
aa(lp2117
S'3.8626e-05'
p2118
aS'25'
p2119
aa(lp2120
S'3.8272e-05'
p2121
aS'25'
p2122
aa(lp2123
S'3.2118e-05'
p2124
aS'12'
p2125
aa(lp2126
S'3.6653e-05'
p2127
aS'22'
p2128
aa(lp2129
S'4.0493e-04'
p2130
aS'10'
p2131
aa(lp2132
S'4.1412e-04'
p2133
aS'10'
p2134
aa(lp2135
NaNaa(lp2136
NaNaa(lp2137
NaNaa(lp2138
NaNaaa(lp2139
(lp2140
S'2.4890e-05'
p2141
aS'20'
p2142
aa(lp2143
S'2.4484e-05'
p2144
aS'20'
p2145
aa(lp2146
S'2.4473e-05'
p2147
aS'20'
p2148
aa(lp2149
S'2.4544e-05'
p2150
aS'20'
p2151
aa(lp2152
S'2.4515e-05'
p2153
aS'20'
p2154
aa(lp2155
S'2.4389e-05'
p2156
aS'20'
p2157
aa(lp2158
S'2.4541e-05'
p2159
aS'20'
p2160
aa(lp2161
S'2.4013e-05'
p2162
aS'19'
p2163
aa(lp2164
S'2.4104e-05'
p2165
aS'19'
p2166
aa(lp2167
S'2.4009e-05'
p2168
aS'19'
p2169
aa(lp2170
NaNaaa(lp2171
(lp2172
S'3.0032e-05'
p2173
aS'22'
p2174
aa(lp2175
S'2.9937e-05'
p2176
aS'22'
p2177
aa(lp2178
S'3.0100e-05'
p2179
aS'21'
p2180
aa(lp2181
S'3.0003e-05'
p2182
aS'21'
p2183
aa(lp2184
S'2.9854e-05'
p2185
aS'21'
p2186
aa(lp2187
S'3.0195e-05'
p2188
aS'21'
p2189
aa(lp2190
S'3.0148e-05'
p2191
aS'21'
p2192
aa(lp2193
S'2.4313e-05'
p2194
aS'20'
p2195
aa(lp2196
S'4.1996e-05'
p2197
aS'19'
p2198
aa(lp2199
S'4.2073e-05'
p2200
aS'19'
p2201
aa(lp2202
S'4.2038e-05'
p2203
aS'17'
p2204
aaa(lp2205
(lp2206
S'2.5793e-05'
p2207
aS'19'
p2208
aa(lp2209
S'2.5747e-05'
p2210
aS'19'
p2211
aa(lp2212
S'2.5791e-05'
p2213
aS'19'
p2214
aa(lp2215
S'2.5792e-05'
p2216
aS'19'
p2217
aa(lp2218
S'2.5813e-05'
p2219
aS'19'
p2220
aa(lp2221
S'1.4149e-05'
p2222
aS'15'
p2223
aa(lp2224
S'1.3829e-05'
p2225
aS'15'
p2226
aa(lp2227
S'8.9752e-06'
p2228
aS'13'
p2229
aa(lp2230
S'1.4681e-05'
p2231
aS'13'
p2232
aa(lp2233
S'1.0524e-05'
p2234
aS'12'
p2235
aa(lp2236
NaNaaa(lp2237
(lp2238
S'3.7897e-05'
p2239
aS'26'
p2240
aa(lp2241
S'3.7881e-05'
p2242
aS'26'
p2243
aa(lp2244
S'3.7913e-05'
p2245
aS'26'
p2246
aa(lp2247
S'3.4167e-05'
p2248
aS'27'
p2249
aa(lp2250
S'3.3687e-05'
p2251
aS'27'
p2252
aa(lp2253
S'3.3405e-05'
p2254
aS'27'
p2255
aa(lp2256
S'3.3168e-05'
p2257
aS'27'
p2258
aa(lp2259
S'3.0545e-05'
p2260
aS'26'
p2261
aa(lp2262
NaNaa(lp2263
NaNaa(lp2264
S'5.3578e-05'
p2265
aS'13'
p2266
aaa(lp2267
(lp2268
S'2.3907e-05'
p2269
aS'25'
p2270
aa(lp2271
S'2.3873e-05'
p2272
aS'25'
p2273
aa(lp2274
S'2.3830e-05'
p2275
aS'25'
p2276
aa(lp2277
S'2.3754e-05'
p2278
aS'25'
p2279
aa(lp2280
S'2.3749e-05'
p2281
aS'25'
p2282
aa(lp2283
S'2.3658e-05'
p2284
aS'25'
p2285
aa(lp2286
S'2.3624e-05'
p2287
aS'25'
p2288
aa(lp2289
S'2.1020e-05'
p2290
aS'24'
p2291
aa(lp2292
S'1.6620e-05'
p2293
aS'19'
p2294
aa(lp2295
S'1.8203e-05'
p2296
aS'19'
p2297
aa(lp2298
S'3.3421e-05'
p2299
aS'13'
p2300
aaa(lp2301
(lp2302
S'1.9999e-05'
p2303
aS'17'
p2304
aa(lp2305
S'1.9949e-05'
p2306
aS'17'
p2307
aa(lp2308
S'1.9974e-05'
p2309
aS'17'
p2310
aa(lp2311
S'1.9886e-05'
p2312
aS'17'
p2313
aa(lp2314
S'1.9942e-05'
p2315
aS'17'
p2316
aa(lp2317
S'1.9914e-05'
p2318
aS'17'
p2319
aa(lp2320
S'1.9931e-05'
p2321
aS'17'
p2322
aa(lp2323
S'2.2059e-05'
p2324
aS'14'
p2325
aa(lp2326
S'1.0529e-05'
p2327
aS'16'
p2328
aa(lp2329
S'1.0570e-05'
p2330
aS'16'
p2331
aa(lp2332
NaNaaa(lp2333
(lp2334
S'6.5659e-05'
p2335
aS'22'
p2336
aa(lp2337
S'5.0634e-05'
p2338
aS'21'
p2339
aa(lp2340
S'5.0689e-05'
p2341
aS'21'
p2342
aa(lp2343
S'5.0588e-05'
p2344
aS'21'
p2345
aa(lp2346
S'5.0605e-05'
p2347
aS'21'
p2348
aa(lp2349
S'4.7396e-05'
p2350
aS'20'
p2351
aa(lp2352
S'3.9290e-05'
p2353
aS'19'
p2354
aa(lp2355
S'1.0046e-04'
p2356
aS'20'
p2357
aa(lp2358
S'1.6876e-03'
p2359
ag579
aa(lp2360
S'2.9229e-05'
p2361
aS'14'
p2362
aa(lp2363
NaNaaa(lp2364
(lp2365
S'4.6016e-05'
p2366
aS'19'
p2367
aa(lp2368
S'5.7530e-05'
p2369
aS'21'
p2370
aa(lp2371
S'5.7589e-05'
p2372
aS'21'
p2373
aa(lp2374
S'6.8246e-05'
p2375
aS'21'
p2376
aa(lp2377
S'6.8172e-05'
p2378
aS'21'
p2379
aa(lp2380
S'5.7462e-05'
p2381
aS'21'
p2382
aa(lp2383
S'8.4929e-05'
p2384
aS'19'
p2385
aa(lp2386
S'5.1439e-05'
p2387
aS'17'
p2388
aa(lp2389
S'5.1640e-05'
p2390
aS'17'
p2391
aa(lp2392
NaNaa(lp2393
NaNaaa(lp2394
(lp2395
S'4.2155e-05'
p2396
aS'22'
p2397
aa(lp2398
S'4.1972e-05'
p2399
aS'22'
p2400
aa(lp2401
S'5.1507e-05'
p2402
aS'25'
p2403
aa(lp2404
S'5.1510e-05'
p2405
aS'25'
p2406
aa(lp2407
S'5.1622e-05'
p2408
aS'25'
p2409
aa(lp2410
S'4.2211e-05'
p2411
aS'23'
p2412
aa(lp2413
S'3.1515e-05'
p2414
aS'20'
p2415
aa(lp2416
S'3.1568e-05'
p2417
aS'19'
p2418
aa(lp2419
S'3.5910e-05'
p2420
aS'22'
p2421
aa(lp2422
NaNaa(lp2423
NaNaaa(lp2424
(lp2425
S'4.7107e-05'
p2426
aS'25'
p2427
aa(lp2428
S'5.0366e-05'
p2429
aS'27'
p2430
aa(lp2431
S'5.0290e-05'
p2432
aS'27'
p2433
aa(lp2434
S'5.1527e-05'
p2435
aS'27'
p2436
aa(lp2437
S'5.1290e-05'
p2438
aS'27'
p2439
aa(lp2440
S'5.1200e-05'
p2441
aS'27'
p2442
aa(lp2443
S'4.3288e-05'
p2444
aS'25'
p2445
aa(lp2446
S'4.1343e-05'
p2447
aS'27'
p2448
aa(lp2449
S'4.0175e-05'
p2450
aS'26'
p2451
aa(lp2452
NaNaa(lp2453
NaNaaa(lp2454
(lp2455
S'1.2862e-05'
p2456
aS'18'
p2457
aa(lp2458
S'1.2861e-05'
p2459
aS'18'
p2460
aa(lp2461
S'2.8222e-05'
p2462
aS'19'
p2463
aa(lp2464
S'2.8250e-05'
p2465
aS'19'
p2466
aa(lp2467
S'2.8268e-05'
p2468
aS'19'
p2469
aa(lp2470
S'2.7601e-05'
p2471
aS'19'
p2472
aa(lp2473
S'2.7317e-05'
p2474
aS'18'
p2475
aa(lp2476
S'2.7287e-05'
p2477
aS'18'
p2478
aa(lp2479
S'2.7329e-05'
p2480
aS'18'
p2481
aa(lp2482
S'2.7310e-05'
p2483
aS'18'
p2484
aa(lp2485
NaNaaa(lp2486
(lp2487
S'3.3223e-05'
p2488
aS'24'
p2489
aa(lp2490
S'3.3108e-05'
p2491
aS'24'
p2492
aa(lp2493
S'3.3148e-05'
p2494
aS'24'
p2495
aa(lp2496
S'3.3836e-05'
p2497
aS'24'
p2498
aa(lp2499
S'3.3875e-05'
p2500
aS'24'
p2501
aa(lp2502
S'3.3900e-05'
p2503
aS'24'
p2504
aa(lp2505
S'3.3129e-05'
p2506
aS'24'
p2507
aa(lp2508
S'5.0396e-05'
p2509
aS'26'
p2510
aa(lp2511
S'3.3682e-05'
p2512
aS'23'
p2513
aa(lp2514
S'5.5932e-05'
p2515
aS'23'
p2516
aa(lp2517
NaNaaa(lp2518
(lp2519
S'5.5178e-05'
p2520
aS'25'
p2521
aa(lp2522
S'5.5073e-05'
p2523
aS'25'
p2524
aa(lp2525
S'5.4763e-05'
p2526
aS'25'
p2527
aa(lp2528
S'5.4618e-05'
p2529
aS'25'
p2530
aa(lp2531
S'5.4649e-05'
p2532
aS'25'
p2533
aa(lp2534
S'4.4901e-05'
p2535
aS'23'
p2536
aa(lp2537
S'4.5055e-05'
p2538
aS'23'
p2539
aa(lp2540
S'3.3841e-05'
p2541
aS'24'
p2542
aa(lp2543
S'3.7635e-05'
p2544
aS'23'
p2545
aa(lp2546
S'3.7684e-05'
p2547
aS'23'
p2548
aa(lp2549
NaNaaa(lp2550
(lp2551
S'1.1339e-04'
p2552
aS'24'
p2553
aa(lp2554
S'1.1327e-04'
p2555
aS'24'
p2556
aa(lp2557
S'1.1345e-04'
p2558
aS'24'
p2559
aa(lp2560
S'1.1281e-04'
p2561
aS'24'
p2562
aa(lp2563
S'1.1252e-04'
p2564
aS'24'
p2565
aa(lp2566
S'1.1227e-04'
p2567
aS'24'
p2568
aa(lp2569
S'6.8098e-05'
p2570
aS'22'
p2571
aa(lp2572
NaNaa(lp2573
S'6.5534e-05'
p2574
aS'21'
p2575
aa(lp2576
NaNaa(lp2577
NaNaaa(lp2578
(lp2579
S'5.5256e-05'
p2580
aS'23'
p2581
aa(lp2582
S'5.5168e-05'
p2583
aS'23'
p2584
aa(lp2585
S'5.5221e-05'
p2586
aS'23'
p2587
aa(lp2588
S'5.5104e-05'
p2589
aS'23'
p2590
aa(lp2591
S'5.5081e-05'
p2592
aS'23'
p2593
aa(lp2594
S'6.4612e-05'
p2595
aS'23'
p2596
aa(lp2597
S'6.4521e-05'
p2598
aS'23'
p2599
aa(lp2600
NaNaa(lp2601
NaNaa(lp2602
NaNaa(lp2603
NaNaaa(lp2604
(lp2605
S'6.4707e-05'
p2606
aS'23'
p2607
aa(lp2608
S'6.4713e-05'
p2609
aS'23'
p2610
aa(lp2611
S'6.4705e-05'
p2612
aS'23'
p2613
aa(lp2614
S'6.4652e-05'
p2615
aS'23'
p2616
aa(lp2617
S'6.4709e-05'
p2618
aS'23'
p2619
aa(lp2620
S'6.4721e-05'
p2621
aS'23'
p2622
aa(lp2623
S'7.9241e-05'
p2624
aS'25'
p2625
aa(lp2626
NaNaa(lp2627
S'7.4931e-05'
p2628
aS'24'
p2629
aa(lp2630
S'6.2334e-05'
p2631
aS'24'
p2632
aa(lp2633
NaNaaa(lp2634
(lp2635
S'2.4493e-05'
p2636
aS'26'
p2637
aa(lp2638
S'2.4539e-05'
p2639
aS'26'
p2640
aa(lp2641
S'2.4522e-05'
p2642
aS'26'
p2643
aa(lp2644
S'2.4601e-05'
p2645
aS'26'
p2646
aa(lp2647
S'2.4631e-05'
p2648
aS'26'
p2649
aa(lp2650
S'2.4603e-05'
p2651
aS'26'
p2652
aa(lp2653
NaNaa(lp2654
S'1.0390e-03'
p2655
aS'10'
p2656
aa(lp2657
NaNaa(lp2658
S'6.8984e-05'
p2659
aS'27'
p2660
aa(lp2661
S'6.2512e-05'
p2662
aS'28'
p2663
aaa(lp2664
(lp2665
S'5.1240e-05'
p2666
aS'27'
p2667
aa(lp2668
S'5.1308e-05'
p2669
aS'27'
p2670
aa(lp2671
S'5.1330e-05'
p2672
aS'27'
p2673
aa(lp2674
S'8.1824e-05'
p2675
aS'29'
p2676
aa(lp2677
S'8.1881e-05'
p2678
aS'29'
p2679
aa(lp2680
S'8.1689e-05'
p2681
aS'29'
p2682
aa(lp2683
S'8.1787e-05'
p2684
aS'29'
p2685
aa(lp2686
S'1.7022e-04'
p2687
ag579
aa(lp2688
S'8.9531e-05'
p2689
aS'27'
p2690
aa(lp2691
S'9.6405e-05'
p2692
aS'26'
p2693
aa(lp2694
S'6.7596e-05'
p2695
aS'25'
p2696
aaa(lp2697
(lp2698
S'1.4519e-05'
p2699
aS'19'
p2700
aa(lp2701
S'1.4530e-05'
p2702
aS'19'
p2703
aa(lp2704
S'1.4501e-05'
p2705
aS'19'
p2706
aa(lp2707
S'7.0300e-05'
p2708
aS'21'
p2709
aa(lp2710
S'7.0120e-05'
p2711
aS'21'
p2712
aa(lp2713
S'8.3486e-05'
p2714
aS'22'
p2715
aa(lp2716
NaNaa(lp2717
NaNaa(lp2718
NaNaa(lp2719
NaNaa(lp2720
NaNaaa(lp2721
(lp2722
S'1.7936e-05'
p2723
aS'22'
p2724
aa(lp2725
S'1.7887e-05'
p2726
aS'22'
p2727
aa(lp2728
S'1.7930e-05'
p2729
aS'22'
p2730
aa(lp2731
S'1.7906e-05'
p2732
aS'22'
p2733
aa(lp2734
S'1.7877e-05'
p2735
aS'22'
p2736
aa(lp2737
S'1.7897e-05'
p2738
aS'22'
p2739
aa(lp2740
S'4.8499e-02'
p2741
aS'17'
p2742
aa(lp2743
S'2.0540e-02'
p2744
aS'10'
p2745
aa(lp2746
S'1.4247e-05'
p2747
aS'21'
p2748
aa(lp2749
NaNaa(lp2750
S'4.1733e-03'
p2751
ag579
aaa(lp2752
(lp2753
S'7.3935e-05'
p2754
aS'28'
p2755
aa(lp2756
S'7.3919e-05'
p2757
aS'28'
p2758
aa(lp2759
S'7.3820e-05'
p2760
aS'28'
p2761
aa(lp2762
S'7.3766e-05'
p2763
aS'28'
p2764
aa(lp2765
S'7.3659e-05'
p2766
aS'28'
p2767
aa(lp2768
S'7.3508e-05'
p2769
aS'28'
p2770
aa(lp2771
S'4.3607e-06'
p2772
aS'11'
p2773
aa(lp2774
S'1.2311e-05'
p2775
ag2002
aa(lp2776
S'6.4775e-05'
p2777
aS'25'
p2778
aa(lp2779
NaNaa(lp2780
S'7.1820e-05'
p2781
aS'26'
p2782
aaa(lp2783
(lp2784
S'3.1865e-05'
p2785
aS'21'
p2786
aa(lp2787
S'3.1568e-05'
p2788
aS'21'
p2789
aa(lp2790
S'3.1605e-05'
p2791
aS'21'
p2792
aa(lp2793
S'3.1903e-05'
p2794
aS'21'
p2795
aa(lp2796
S'3.1590e-05'
p2797
aS'21'
p2798
aa(lp2799
S'3.1614e-05'
p2800
aS'21'
p2801
aa(lp2802
S'4.3577e-05'
p2803
aS'22'
p2804
aa(lp2805
S'4.3530e-05'
p2806
aS'22'
p2807
aa(lp2808
S'4.6102e-03'
p2809
aS'13'
p2810
aa(lp2811
S'8.9169e-03'
p2812
aS'10'
p2813
aa(lp2814
NaNaaa(lp2815
(lp2816
S'1.0932e-05'
p2817
aS'15'
p2818
aa(lp2819
S'1.0911e-05'
p2820
aS'15'
p2821
aa(lp2822
S'1.0929e-05'
p2823
aS'15'
p2824
aa(lp2825
S'1.0912e-05'
p2826
aS'15'
p2827
aa(lp2828
S'1.0894e-05'
p2829
aS'15'
p2830
aa(lp2831
S'1.3623e-05'
p2832
aS'15'
p2833
aa(lp2834
S'1.3618e-05'
p2835
aS'15'
p2836
aa(lp2837
NaNaa(lp2838
NaNaa(lp2839
NaNaa(lp2840
NaNaaaa.